target datalayout = "e-m:e-p270:32:32-p271:32:32-p272:64:64-i64:64-i128:128-f80:128-n8:16:32:64-S128"
target triple = "x86_64-pc-linux-gnu"

%"class.google::protobuf::internal::InternalMetadata" = type { i64 }
%"class.google::protobuf::internal::HasBits" = type { [1 x i32] }
%"struct.google::protobuf::internal::ArenaStringPtr" = type { %"class.google::protobuf::internal::TaggedPtr" }
%"class.google::protobuf::internal::TaggedPtr" = type { ptr }
%"class.google::protobuf::Message" = type { %"class.google::protobuf::MessageLite" }
%"class.google::protobuf::MessageLite" = type { ptr, %"class.google::protobuf::internal::InternalMetadata" }
%"struct.std::atomic" = type { %"struct.std::__atomic_base" }
%"struct.std::__atomic_base" = type { i32 }
%"class.google::protobuf::internal::CachedSize" = type { %"struct.std::atomic" }
%"class.google::protobuf::internal::LogMessage" = type { i32, ptr, i32, %"class.std::__cxx11::basic_string" }
%"class.std::__cxx11::basic_string" = type { %"struct.std::__cxx11::basic_string<char>::_Alloc_hider", i64, %union.anon.88 }
%"struct.std::__cxx11::basic_string<char>::_Alloc_hider" = type { ptr }
%union.anon.88 = type { i64, [8 x i8] }
%"class.google::protobuf::internal::LogFinisher" = type { i8 }
%"struct.google::protobuf::internal::InternalMetadata::ContainerBase" = type { ptr }
%"class.opencv_caffe::FillerParameter" = type <{ %"class.google::protobuf::Message", %"class.google::protobuf::internal::HasBits", %"class.google::protobuf::internal::CachedSize", %"struct.google::protobuf::internal::ArenaStringPtr", float, float, float, i32, i32, float, float, [4 x i8] }>
%"class.opencv_caffe::PReLUParameter" = type <{ %"class.google::protobuf::Message", %"class.google::protobuf::internal::HasBits", %"class.google::protobuf::internal::CachedSize", ptr, i8, [7 x i8] }>

@.str.2 = private unnamed_addr constant [133 x i8] c"generated/home/dtcxzyw/WorkSpace/Projects/compilers/llvm-opt-benchmark/bench/opencv/opencv/modules/dnn/misc/caffe/opencv-caffe.pb.cc\00", align 1
@.str.89 = private unnamed_addr constant [35 x i8] c"CHECK failed: filler_ != nullptr: \00", align 1

; Function Attrs: mustprogress nounwind uwtable
define linkonce_odr hidden noundef ptr @_ZNK6google8protobuf8internal16InternalMetadata8PtrValueINS0_5ArenaEEEPT_v(ptr noundef nonnull align 8 dereferenceable(8) %0) #5 comdat align 2 {
  %2 = alloca ptr, align 8
  store ptr %0, ptr %2, align 8, !tbaa !32
  %3 = load ptr, ptr %2, align 8
  %4 = getelementptr inbounds nuw %"class.google::protobuf::internal::InternalMetadata", ptr %3, i32 0, i32 0
  %5 = load i64, ptr %4, align 8, !tbaa !1438
  %6 = and i64 %5, -4
  %7 = inttoptr i64 %6 to ptr
  ret ptr %7
}

; Function Attrs: mustprogress nounwind uwtable
define linkonce_odr hidden noundef ptr @_ZNK6google8protobuf8internal16InternalMetadata8PtrValueINS2_13ContainerBaseEEEPT_v(ptr noundef nonnull align 8 dereferenceable(8) %0) #5 comdat align 2 {
  %2 = alloca ptr, align 8
  store ptr %0, ptr %2, align 8, !tbaa !32
  %3 = load ptr, ptr %2, align 8
  %4 = getelementptr inbounds nuw %"class.google::protobuf::internal::InternalMetadata", ptr %3, i32 0, i32 0
  %5 = load i64, ptr %4, align 8, !tbaa !1438
  %6 = and i64 %5, -4
  %7 = inttoptr i64 %6 to ptr
  ret ptr %7
}

; Function Attrs: alwaysinline mustprogress nounwind uwtable
define linkonce_odr hidden noundef zeroext i1 @_ZNK6google8protobuf8internal16InternalMetadata19HasUnknownFieldsTagEv(ptr noundef nonnull align 8 dereferenceable(8) %0) #13 comdat align 2 {
  %2 = alloca ptr, align 8
  store ptr %0, ptr %2, align 8, !tbaa !32
  %3 = load ptr, ptr %2, align 8
  %4 = getelementptr inbounds nuw %"class.google::protobuf::internal::InternalMetadata", ptr %3, i32 0, i32 0
  %5 = load i64, ptr %4, align 8, !tbaa !1438
  %6 = and i64 %5, 1
  %7 = icmp ne i64 %6, 0
  ret i1 %7
}

; Function Attrs: alwaysinline mustprogress uwtable
define linkonce_odr hidden noundef ptr @_ZNK6google8protobuf8internal16InternalMetadata5arenaEv(ptr noundef nonnull align 8 dereferenceable(8) %0) #8 comdat align 2 {
  %2 = alloca ptr, align 8
  %3 = alloca ptr, align 8
  store ptr %0, ptr %3, align 8, !tbaa !32
  %4 = load ptr, ptr %3, align 8
  %5 = call noundef zeroext i1 @_ZNK6google8protobuf8internal16InternalMetadata19have_unknown_fieldsEv(ptr noundef nonnull align 8 dereferenceable(8) %4)
  %6 = zext i1 %5 to i64
  %7 = call i64 @llvm.expect.i64(i64 %6, i64 0)
  %8 = icmp ne i64 %7, 0
  br i1 %8, label %9, label %13

9:                                                ; preds = %1
  %10 = call noundef ptr @_ZNK6google8protobuf8internal16InternalMetadata8PtrValueINS2_13ContainerBaseEEEPT_v(ptr noundef nonnull align 8 dereferenceable(8) %4)
  %11 = getelementptr inbounds nuw %"struct.google::protobuf::internal::InternalMetadata::ContainerBase", ptr %10, i32 0, i32 0
  %12 = load ptr, ptr %11, align 8, !tbaa !1443
  store ptr %12, ptr %2, align 8
  br label %15

13:                                               ; preds = %1
  %14 = call noundef ptr @_ZNK6google8protobuf8internal16InternalMetadata8PtrValueINS0_5ArenaEEEPT_v(ptr noundef nonnull align 8 dereferenceable(8) %4)
  store ptr %14, ptr %2, align 8
  br label %15

15:                                               ; preds = %13, %9
  %16 = load ptr, ptr %2, align 8
  ret ptr %16
}

; Function Attrs: alwaysinline mustprogress uwtable
define linkonce_odr hidden noundef zeroext i1 @_ZNK6google8protobuf8internal16InternalMetadata19have_unknown_fieldsEv(ptr noundef nonnull align 8 dereferenceable(8) %0) #8 comdat align 2 {
  %2 = alloca ptr, align 8
  store ptr %0, ptr %2, align 8, !tbaa !32
  %3 = load ptr, ptr %2, align 8
  %4 = call noundef zeroext i1 @_ZNK6google8protobuf8internal16InternalMetadata19HasUnknownFieldsTagEv(ptr noundef nonnull align 8 dereferenceable(8) %3)
  ret i1 %4
}

; Function Attrs: mustprogress uwtable
define linkonce_odr hidden noundef ptr @_ZNK6google8protobuf11MessageLite21GetArenaForAllocationEv(ptr noundef nonnull align 8 dereferenceable(16) %0) #4 comdat align 2 {
  %2 = alloca ptr, align 8
  store ptr %0, ptr %2, align 8, !tbaa !30
  %3 = load ptr, ptr %2, align 8
  %4 = getelementptr inbounds nuw %"class.google::protobuf::MessageLite", ptr %3, i32 0, i32 1
  %5 = call noundef ptr @_ZNK6google8protobuf8internal16InternalMetadata5arenaEv(ptr noundef nonnull align 8 dereferenceable(8) %4)
  ret ptr %5
}

; Function Attrs: alwaysinline mustprogress uwtable
define linkonce_odr hidden void @_ZN6google8protobuf8internal16InternalMetadata5ClearINS0_15UnknownFieldSetEEEvv(ptr noundef nonnull align 8 dereferenceable(8) %0) #8 comdat align 2 {
  %2 = alloca ptr, align 8
  store ptr %0, ptr %2, align 8, !tbaa !32
  %3 = load ptr, ptr %2, align 8
  %4 = call noundef zeroext i1 @_ZNK6google8protobuf8internal16InternalMetadata19have_unknown_fieldsEv(ptr noundef nonnull align 8 dereferenceable(8) %3)
  br i1 %4, label %5, label %6

5:                                                ; preds = %1
  call void @_ZN6google8protobuf8internal16InternalMetadata7DoClearINS0_15UnknownFieldSetEEEvv(ptr noundef nonnull align 8 dereferenceable(8) %3)
  br label %6

6:                                                ; preds = %5, %1
  ret void
}

; Function Attrs: alwaysinline mustprogress nounwind uwtable
define linkonce_odr hidden void @_ZN6google8protobuf8internal7HasBitsILm1EE5ClearEv(ptr noundef nonnull align 4 dereferenceable(4) %0) #13 comdat align 2 {
  %2 = alloca ptr, align 8
  store ptr %0, ptr %2, align 8, !tbaa !87
  %3 = load ptr, ptr %2, align 8
  %4 = getelementptr inbounds nuw %"class.google::protobuf::internal::HasBits", ptr %3, i32 0, i32 0
  %5 = getelementptr inbounds [1 x i32], ptr %4, i64 0, i64 0
  call void @llvm.memset.p0.i64(ptr align 4 %5, i8 0, i64 4, i1 false)
  ret void
}

; Function Attrs: mustprogress uwtable
define hidden void @_ZN12opencv_caffe15FillerParameter5ClearEv(ptr noundef nonnull align 8 dereferenceable(64) %0) unnamed_addr #4 align 2 {
  %2 = alloca ptr, align 8
  %3 = alloca i32, align 4
  store ptr %0, ptr %2, align 8, !tbaa !170
  %4 = load ptr, ptr %2, align 8
  call void @llvm.lifetime.start.p0(i64 4, ptr %3) #3
  store i32 0, ptr %3, align 4, !tbaa !8
  %5 = getelementptr inbounds nuw %"class.opencv_caffe::FillerParameter", ptr %4, i32 0, i32 1
  %6 = call noundef nonnull align 4 dereferenceable(4) ptr @_ZN6google8protobuf8internal7HasBitsILm1EEixEi(ptr noundef nonnull align 4 dereferenceable(4) %5, i32 noundef 0)
  %7 = load i32, ptr %6, align 4, !tbaa !8
  store i32 %7, ptr %3, align 4, !tbaa !8
  %8 = load i32, ptr %3, align 4, !tbaa !8
  %9 = and i32 %8, 1
  %10 = icmp ne i32 %9, 0
  br i1 %10, label %11, label %14

11:                                               ; preds = %1
  %12 = getelementptr inbounds nuw %"class.opencv_caffe::FillerParameter", ptr %4, i32 0, i32 3
  %13 = call noundef ptr @_ZNK6google8protobuf11MessageLite21GetArenaForAllocationEv(ptr noundef nonnull align 8 dereferenceable(16) %4)
  call void @_ZN6google8protobuf8internal14ArenaStringPtr14ClearToDefaultERKNS1_10LazyStringEPNS0_5ArenaE(ptr noundef nonnull align 8 dereferenceable(8) %12, ptr noundef nonnull align 8 dereferenceable(40) @_ZN12opencv_caffe15FillerParameter51_i_give_permission_to_break_this_code_default_type_E, ptr noundef %13)
  br label %14

14:                                               ; preds = %11, %1
  %15 = load i32, ptr %3, align 4, !tbaa !8
  %16 = and i32 %15, 254
  %17 = icmp ne i32 %16, 0
  br i1 %17, label %18, label %29

18:                                               ; preds = %14
  %19 = getelementptr inbounds nuw %"class.opencv_caffe::FillerParameter", ptr %4, i32 0, i32 4
  %20 = getelementptr inbounds nuw %"class.opencv_caffe::FillerParameter", ptr %4, i32 0, i32 7
  %21 = getelementptr inbounds nuw %"class.opencv_caffe::FillerParameter", ptr %4, i32 0, i32 4
  %22 = ptrtoint ptr %20 to i64
  %23 = ptrtoint ptr %21 to i64
  %24 = sub i64 %22, %23
  %25 = add i64 %24, 4
  call void @llvm.memset.p0.i64(ptr align 8 %19, i8 0, i64 %25, i1 false)
  %26 = getelementptr inbounds nuw %"class.opencv_caffe::FillerParameter", ptr %4, i32 0, i32 8
  store i32 -1, ptr %26, align 8, !tbaa !171
  %27 = getelementptr inbounds nuw %"class.opencv_caffe::FillerParameter", ptr %4, i32 0, i32 9
  store float 1.000000e+00, ptr %27, align 4, !tbaa !173
  %28 = getelementptr inbounds nuw %"class.opencv_caffe::FillerParameter", ptr %4, i32 0, i32 10
  store float 1.000000e+00, ptr %28, align 8, !tbaa !174
  br label %29

29:                                               ; preds = %18, %14
  %30 = getelementptr inbounds nuw %"class.opencv_caffe::FillerParameter", ptr %4, i32 0, i32 1
  call void @_ZN6google8protobuf8internal7HasBitsILm1EE5ClearEv(ptr noundef nonnull align 4 dereferenceable(4) %30)
  %31 = getelementptr inbounds nuw %"class.google::protobuf::MessageLite", ptr %4, i32 0, i32 1
  call void @_ZN6google8protobuf8internal16InternalMetadata5ClearINS0_15UnknownFieldSetEEEvv(ptr noundef nonnull align 8 dereferenceable(8) %31)
  call void @llvm.lifetime.end.p0(i64 4, ptr %3) #3
  ret void
}

; Function Attrs: alwaysinline mustprogress nounwind uwtable
define linkonce_odr hidden noundef nonnull align 4 dereferenceable(4) ptr @_ZN6google8protobuf8internal7HasBitsILm1EEixEi(ptr noundef nonnull align 4 dereferenceable(4) %0, i32 noundef %1) #13 comdat align 2 {
  %3 = alloca ptr, align 8
  %4 = alloca i32, align 4
  store ptr %0, ptr %3, align 8, !tbaa !87
  store i32 %1, ptr %4, align 4, !tbaa !8
  %5 = load ptr, ptr %3, align 8
  %6 = getelementptr inbounds nuw %"class.google::protobuf::internal::HasBits", ptr %5, i32 0, i32 0
  %7 = load i32, ptr %4, align 4, !tbaa !8
  %8 = sext i32 %7 to i64
  %9 = getelementptr inbounds [1 x i32], ptr %6, i64 0, i64 %8
  ret ptr %9
}

; Function Attrs: mustprogress uwtable
define hidden void @_ZN12opencv_caffe14PReLUParameter5ClearEv(ptr noundef nonnull align 8 dereferenceable(40) %0) unnamed_addr #4 align 2 personality ptr @__gxx_personality_v0 {
  %2 = alloca ptr, align 8
  %3 = alloca i32, align 4
  %4 = alloca %"class.google::protobuf::internal::LogMessage", align 8
  %5 = alloca i1, align 1
  %6 = alloca i1, align 1
  %7 = alloca ptr, align 8
  %8 = alloca i32, align 4
  %9 = alloca %"class.google::protobuf::internal::LogFinisher", align 1
  store ptr %0, ptr %2, align 8, !tbaa !811
  %10 = load ptr, ptr %2, align 8
  call void @llvm.lifetime.start.p0(i64 4, ptr %3) #3
  store i32 0, ptr %3, align 4, !tbaa !8
  %11 = getelementptr inbounds nuw %"class.opencv_caffe::PReLUParameter", ptr %10, i32 0, i32 1
  %12 = call noundef nonnull align 4 dereferenceable(4) ptr @_ZN6google8protobuf8internal7HasBitsILm1EEixEi(ptr noundef nonnull align 4 dereferenceable(4) %11, i32 noundef 0)
  %13 = load i32, ptr %12, align 4, !tbaa !8
  store i32 %13, ptr %3, align 4, !tbaa !8
  %14 = load i32, ptr %3, align 4, !tbaa !8
  %15 = and i32 %14, 1
  %16 = icmp ne i32 %15, 0
  br i1 %16, label %17, label %53

17:                                               ; preds = %1
  br label %18

18:                                               ; preds = %34, %17
  br i1 false, label %19, label %50

19:                                               ; preds = %18
  %20 = getelementptr inbounds nuw %"class.opencv_caffe::PReLUParameter", ptr %10, i32 0, i32 3
  %21 = load ptr, ptr %20, align 8, !tbaa !812
  %22 = icmp ne ptr %21, null
  store i1 false, ptr %5, align 1
  store i1 false, ptr %6, align 1
  call void @llvm.lifetime.start.p0(i64 1, ptr %9) #3
  br i1 %22, label %23, label %24

23:                                               ; preds = %19
  br label %28

24:                                               ; preds = %19
  call void @llvm.lifetime.start.p0(i64 56, ptr %4) #3
  store i1 true, ptr %5, align 1
  call void @_ZN6google8protobuf8internal10LogMessageC1ENS0_8LogLevelEPKci(ptr noundef nonnull align 8 dereferenceable(56) %4, i32 noundef 3, ptr noundef @.str.2, i32 noundef 32369)
  store i1 true, ptr %6, align 1
  %25 = invoke noundef nonnull align 8 dereferenceable(56) ptr @_ZN6google8protobuf8internal10LogMessagelsEPKc(ptr noundef nonnull align 8 dereferenceable(56) %4, ptr noundef @.str.89)
          to label %26 unwind label %35

26:                                               ; preds = %24
  invoke void @_ZN6google8protobuf8internal11LogFinisheraSERNS1_10LogMessageE(ptr noundef nonnull align 1 dereferenceable(1) %9, ptr noundef nonnull align 8 dereferenceable(56) %25)
          to label %27 unwind label %39

27:                                               ; preds = %26
  br label %28

28:                                               ; preds = %27, %23
  call void @llvm.lifetime.end.p0(i64 1, ptr %9) #3
  %29 = load i1, ptr %6, align 1
  br i1 %29, label %30, label %31

30:                                               ; preds = %28
  call void @_ZN6google8protobuf8internal10LogMessageD1Ev(ptr noundef nonnull align 8 dereferenceable(56) %4) #3
  br label %31

31:                                               ; preds = %30, %28
  %32 = load i1, ptr %5, align 1
  br i1 %32, label %33, label %34

33:                                               ; preds = %31
  call void @llvm.lifetime.end.p0(i64 56, ptr %4) #3
  br label %34

34:                                               ; preds = %33, %31
  br label %18, !llvm.loop !814

35:                                               ; preds = %24
  %36 = landingpad { ptr, i32 }
          cleanup
  %37 = extractvalue { ptr, i32 } %36, 0
  store ptr %37, ptr %7, align 8
  %38 = extractvalue { ptr, i32 } %36, 1
  store i32 %38, ptr %8, align 4
  br label %43

39:                                               ; preds = %26
  %40 = landingpad { ptr, i32 }
          cleanup
  %41 = extractvalue { ptr, i32 } %40, 0
  store ptr %41, ptr %7, align 8
  %42 = extractvalue { ptr, i32 } %40, 1
  store i32 %42, ptr %8, align 4
  call void @llvm.lifetime.end.p0(i64 1, ptr %9) #3
  br label %43

43:                                               ; preds = %39, %35
  %44 = load i1, ptr %6, align 1
  br i1 %44, label %45, label %46

45:                                               ; preds = %43
  call void @_ZN6google8protobuf8internal10LogMessageD1Ev(ptr noundef nonnull align 8 dereferenceable(56) %4) #3
  br label %46

46:                                               ; preds = %45, %43
  %47 = load i1, ptr %5, align 1
  br i1 %47, label %48, label %49

48:                                               ; preds = %46
  call void @llvm.lifetime.end.p0(i64 56, ptr %4) #3
  br label %49

49:                                               ; preds = %48, %46
  call void @llvm.lifetime.end.p0(i64 4, ptr %3) #3
  br label %57

50:                                               ; preds = %18
  %51 = getelementptr inbounds nuw %"class.opencv_caffe::PReLUParameter", ptr %10, i32 0, i32 3
  %52 = load ptr, ptr %51, align 8, !tbaa !812
  call void @_ZN12opencv_caffe15FillerParameter5ClearEv(ptr noundef nonnull align 8 dereferenceable(64) %52)
  br label %53

53:                                               ; preds = %50, %1
  %54 = getelementptr inbounds nuw %"class.opencv_caffe::PReLUParameter", ptr %10, i32 0, i32 4
  store i8 0, ptr %54, align 8, !tbaa !815
  %55 = getelementptr inbounds nuw %"class.opencv_caffe::PReLUParameter", ptr %10, i32 0, i32 1
  call void @_ZN6google8protobuf8internal7HasBitsILm1EE5ClearEv(ptr noundef nonnull align 4 dereferenceable(4) %55)
  %56 = getelementptr inbounds nuw %"class.google::protobuf::MessageLite", ptr %10, i32 0, i32 1
  call void @_ZN6google8protobuf8internal16InternalMetadata5ClearINS0_15UnknownFieldSetEEEvv(ptr noundef nonnull align 8 dereferenceable(8) %56)
  call void @llvm.lifetime.end.p0(i64 4, ptr %3) #3
  ret void

57:                                               ; preds = %49
  %58 = load ptr, ptr %7, align 8
  %59 = load i32, ptr %8, align 4
  %60 = insertvalue { ptr, i32 } poison, ptr %58, 0
  %61 = insertvalue { ptr, i32 } %60, i32 %59, 1
  resume { ptr, i32 } %61
}