; Function Attrs: mustprogress uwtable
define hidden void @_ZN12opencv_caffe14PReLUParameter5ClearEv(ptr noundef nonnull align 8 dereferenceable(40) initializes((32, 33)) %0) unnamed_addr #3 align 2 personality ptr @__gxx_personality_v0 {
  %2 = getelementptr inbounds nuw i8, ptr %0, i64 16
  %3 = load i32, ptr %2, align 8, !tbaa !71
  %4 = and i32 %3, 1
  %.not = icmp eq i32 %4, 0
  br i1 %.not, label %_ZN12opencv_caffe15FillerParameter5ClearEv.exit, label %5

5:                                                ; preds = %1
  %6 = getelementptr inbounds nuw i8, ptr %0, i64 24
  %7 = load ptr, ptr %6, align 8, !tbaa !558
  %8 = getelementptr inbounds nuw i8, ptr %7, i64 16
  %9 = load i32, ptr %8, align 4, !tbaa !71
  %10 = and i32 %9, 1
  %.not.i = icmp eq i32 %10, 0
  br i1 %.not.i, label %20, label %11

11:                                               ; preds = %5
  %12 = getelementptr inbounds nuw i8, ptr %7, i64 24
  %13 = getelementptr inbounds nuw i8, ptr %7, i64 8
  %14 = load i64, ptr %13, align 8, !tbaa !8
  %15 = and i64 %14, 1
  %.not.i.i = icmp eq i64 %15, 0
  %16 = and i64 %14, -4
  %17 = inttoptr i64 %16 to ptr
  br i1 %.not.i.i, label %_ZNK6google8protobuf11MessageLite21GetArenaForAllocationEv.exit.i, label %18, !prof !20

18:                                               ; preds = %11
  %19 = load ptr, ptr %17, align 8, !tbaa !21
  br label %_ZNK6google8protobuf11MessageLite21GetArenaForAllocationEv.exit.i

_ZNK6google8protobuf11MessageLite21GetArenaForAllocationEv.exit.i: ; preds = %18, %11
  %.0.i.i.i = phi ptr [ %19, %18 ], [ %17, %11 ]
  tail call void @_ZN6google8protobuf8internal14ArenaStringPtr14ClearToDefaultERKNS1_10LazyStringEPNS0_5ArenaE(ptr noundef nonnull align 8 dereferenceable(8) %12, ptr noundef nonnull align 8 dereferenceable(40) @_ZN12opencv_caffe15FillerParameter51_i_give_permission_to_break_this_code_default_type_E, ptr noundef %.0.i.i.i)
  br label %20

20:                                               ; preds = %_ZNK6google8protobuf11MessageLite21GetArenaForAllocationEv.exit.i, %5
  %21 = and i32 %9, 254
  %.not2.i = icmp eq i32 %21, 0
  br i1 %.not2.i, label %27, label %22

22:                                               ; preds = %20
  %23 = getelementptr inbounds nuw i8, ptr %7, i64 32
  tail call void @llvm.memset.p0.i64(ptr noundef nonnull align 8 dereferenceable(16) %23, i8 0, i64 16, i1 false)
  %24 = getelementptr inbounds nuw i8, ptr %7, i64 48
  store i32 -1, ptr %24, align 8, !tbaa !121
  %25 = getelementptr inbounds nuw i8, ptr %7, i64 52
  store float 1.000000e+00, ptr %25, align 4, !tbaa !123
  %26 = getelementptr inbounds nuw i8, ptr %7, i64 56
  store float 1.000000e+00, ptr %26, align 8, !tbaa !124
  br label %27

27:                                               ; preds = %22, %20
  store i32 0, ptr %8, align 4
  %28 = getelementptr inbounds nuw i8, ptr %7, i64 8
  %29 = load i64, ptr %28, align 8, !tbaa !8
  %30 = and i64 %29, 1
  %.not3.i = icmp eq i64 %30, 0
  br i1 %.not3.i, label %_ZN12opencv_caffe15FillerParameter5ClearEv.exit, label %31

31:                                               ; preds = %27
  tail call void @_ZN6google8protobuf8internal16InternalMetadata7DoClearINS0_15UnknownFieldSetEEEvv(ptr noundef nonnull align 8 dereferenceable(8) %28)
  br label %_ZN12opencv_caffe15FillerParameter5ClearEv.exit

_ZN12opencv_caffe15FillerParameter5ClearEv.exit:  ; preds = %31, %27, %1
  %32 = getelementptr inbounds nuw i8, ptr %0, i64 32
  store i8 0, ptr %32, align 8, !tbaa !560
  store i32 0, ptr %2, align 8
  %33 = getelementptr inbounds nuw i8, ptr %0, i64 8
  %34 = load i64, ptr %33, align 8, !tbaa !8
  %35 = and i64 %34, 1
  %.not1 = icmp eq i64 %35, 0
  br i1 %.not1, label %_ZN6google8protobuf8internal16InternalMetadata5ClearINS0_15UnknownFieldSetEEEvv.exit, label %36

36:                                               ; preds = %_ZN12opencv_caffe15FillerParameter5ClearEv.exit
  tail call void @_ZN6google8protobuf8internal16InternalMetadata7DoClearINS0_15UnknownFieldSetEEEvv(ptr noundef nonnull align 8 dereferenceable(8) %33)
  br label %_ZN6google8protobuf8internal16InternalMetadata5ClearINS0_15UnknownFieldSetEEEvv.exit

_ZN6google8protobuf8internal16InternalMetadata5ClearINS0_15UnknownFieldSetEEEvv.exit: ; preds = %_ZN12opencv_caffe15FillerParameter5ClearEv.exit, %36
  ret void
}